target datalayout = "e-m:e-p270:32:32-p271:32:32-p272:64:64-i64:64-i128:128-f80:128-n8:16:32:64-S128"
target triple = "x86_64-pc-linux-gnu"

%struct.strvec = type { ptr, i64, i64 }
%struct.strbuf = type { i64, i64, ptr }
%struct.recent_data = type { ptr, i64, ptr, i32, %struct.oidset, i32 }
%struct.oidset = type { %struct.kh_oid_set }
%struct.kh_oid_set = type { i32, i32, i32, i32, ptr, ptr, ptr }
%struct.rev_info = type { ptr, %struct.object_array, ptr, %struct.object_array, %struct.rev_cmdline_info, %struct.list_objects_filter_options, %struct.ref_exclusions, ptr, ptr, ptr, %struct.pathspec, i32, i32, i32, i32, i64, i32, i32, %struct.date_mode, i32, i32, i32, i32, ptr, i32, i32, ptr, ptr, i32, ptr, ptr, %struct.ident_split, ptr, i32, ptr, ptr, ptr, i32, i32, i32, ptr, %struct.grep_opt, ptr, i32, i32, i64, i64, i64, i32, i32, ptr, ptr, ptr, %struct.diff_options, %struct.diff_options, ptr, %struct.decoration, %struct.decoration, %struct.decoration, %struct.display_notes_opt, ptr, ptr, ptr, ptr, ptr, i32, ptr, i32, i32, i32, %struct.decoration, ptr, ptr, ptr, ptr, ptr, ptr, ptr, i32, ptr, i32, ptr, %struct.oidset }
%struct.object_array = type { i32, i32, ptr }
%struct.rev_cmdline_info = type { i32, i32, ptr }
%struct.list_objects_filter_options = type { %struct.strbuf, i32, i8, ptr, i64, i64, i32, i64, i64, ptr }
%struct.ref_exclusions = type { %struct.string_list, %struct.strvec, i8 }
%struct.string_list = type { ptr, i64, i64, i8, ptr }
%struct.pathspec = type { i32, i8, i32, i32, ptr }
%struct.date_mode = type { i32, i32, ptr }
%struct.ident_split = type { ptr, ptr, ptr, ptr, ptr, ptr, ptr, ptr }
%struct.grep_opt = type { ptr, ptr, ptr, ptr, ptr, ptr, i32, i32, i32, i32, i32, i32, i32, i32, i32, i32, i32, i32, i32, i32, i32, i32, i32, i32, i32, i32, i32, i32, i32, i32, i32, i32, [9 x [75 x i8]], i32, i32, i32, i32, i32, i32, i32, ptr, ptr, ptr }
%struct.diff_options = type { ptr, ptr, i32, i32, ptr, i32, ptr, i64, i64, ptr, ptr, ptr, ptr, %struct.diff_flags, i32, i32, i32, i32, i32, i32, i32, i32, i32, i32, i32, i32, i32, i32, i32, i32, i32, i32, i32, i32, i32, i32, ptr, i32, ptr, i32, i32, ptr, i64, i64, i32, i32, i32, i32, ptr, i32, i32, ptr, i32, i32, ptr, ptr, i32, [3 x i8], %struct.pathspec, ptr, ptr, ptr, ptr, ptr, ptr, ptr, ptr, i32, ptr, i32, i32, ptr, ptr, i32 }
%struct.diff_flags = type { i32, i32, i32, i32, i32, i32, i32, i32, i32, i32, i32, i32, i32, i32, i32, i32, i32, i32, i32, i32, i32, i32, i32, i32, i32, i32, i32, i32, i32, i32, i32, i32, i32, i32, i32 }
%struct.display_notes_opt = type { i32, %struct.string_list }
%struct.decoration = type { ptr, i32, i32, ptr }
%struct.stat = type { i64, i64, i64, i32, i32, i32, i32, i64, i64, i64, i64, %struct.timespec, %struct.timespec, %struct.timespec, [3 x i64] }
%struct.timespec = type { i64, i64 }

@the_repository = external global ptr, align 8
@.str.2 = private unnamed_addr constant [18 x i8] c"unable to stat %s\00", align 1

; Function Attrs: inlinehint nounwind uwtable
define internal i32 @const_error() #4 {
  ret i32 -1
}

; Function Attrs: nounwind uwtable
define internal i32 @want_recent_object(ptr noundef %0, ptr noundef %1) #0 {
  %3 = alloca i32, align 4
  %4 = alloca ptr, align 8
  %5 = alloca ptr, align 8
  store ptr %0, ptr %4, align 8, !tbaa !97
  store ptr %1, ptr %5, align 8, !tbaa !69
  %6 = load ptr, ptr %4, align 8, !tbaa !97
  %7 = getelementptr inbounds nuw %struct.recent_data, ptr %6, i32 0, i32 3
  %8 = load i32, ptr %7, align 8, !tbaa !22
  %9 = icmp ne i32 %8, 0
  br i1 %9, label %10, label %20

10:                                               ; preds = %2
  %11 = load ptr, ptr %4, align 8, !tbaa !97
  %12 = getelementptr inbounds nuw %struct.recent_data, ptr %11, i32 0, i32 0
  %13 = load ptr, ptr %12, align 8, !tbaa !14
  %14 = getelementptr inbounds nuw %struct.rev_info, ptr %13, i32 0, i32 2
  %15 = load ptr, ptr %14, align 8, !tbaa !24
  %16 = load ptr, ptr %5, align 8, !tbaa !69
  %17 = call i32 @has_object_kept_pack(ptr noundef %15, ptr noundef %16, i32 noundef 2)
  %18 = icmp ne i32 %17, 0
  br i1 %18, label %19, label %20

19:                                               ; preds = %10
  store i32 0, ptr %3, align 4
  br label %21

20:                                               ; preds = %10, %2
  store i32 1, ptr %3, align 4
  br label %21

21:                                               ; preds = %20, %19
  %22 = load i32, ptr %3, align 4
  ret i32 %22
}

; Function Attrs: nounwind uwtable
define internal i32 @add_recent_loose(ptr noundef %0, ptr noundef %1, ptr noundef %2) #0 {
  %4 = alloca i32, align 4
  %5 = alloca ptr, align 8
  %6 = alloca ptr, align 8
  %7 = alloca ptr, align 8
  %8 = alloca %struct.stat, align 8
  %9 = alloca ptr, align 8
  %10 = alloca i32, align 4
  store ptr %0, ptr %5, align 8, !tbaa !69
  store ptr %1, ptr %6, align 8, !tbaa !70
  store ptr %2, ptr %7, align 8, !tbaa !11
  call void @llvm.lifetime.start.p0(i64 144, ptr %8) #9
  call void @llvm.lifetime.start.p0(i64 8, ptr %9) #9
  %11 = load ptr, ptr %7, align 8, !tbaa !11
  %12 = load ptr, ptr %5, align 8, !tbaa !69
  %13 = call i32 @want_recent_object(ptr noundef %11, ptr noundef %12)
  %14 = icmp ne i32 %13, 0
  br i1 %14, label %16, label %15

15:                                               ; preds = %3
  store i32 0, ptr %4, align 4
  store i32 1, ptr %10, align 4
  br label %49

16:                                               ; preds = %3
  %17 = load ptr, ptr @the_repository, align 8, !tbaa !71
  %18 = load ptr, ptr %5, align 8, !tbaa !69
  %19 = call ptr @lookup_object(ptr noundef %17, ptr noundef %18)
  store ptr %19, ptr %9, align 8, !tbaa !72
  %20 = load ptr, ptr %9, align 8, !tbaa !72
  %21 = icmp ne ptr %20, null
  br i1 %21, label %22, label %29

22:                                               ; preds = %16
  %23 = load ptr, ptr %9, align 8, !tbaa !72
  %24 = load i32, ptr %23, align 4
  %25 = lshr i32 %24, 4
  %26 = and i32 %25, 1
  %27 = icmp ne i32 %26, 0
  br i1 %27, label %28, label %29

28:                                               ; preds = %22
  store i32 0, ptr %4, align 4
  store i32 1, ptr %10, align 4
  br label %49

29:                                               ; preds = %22, %16
  %30 = load ptr, ptr %6, align 8, !tbaa !70
  %31 = call i32 @stat64(ptr noundef %30, ptr noundef %8) #9
  %32 = icmp slt i32 %31, 0
  br i1 %32, label %33, label %43

33:                                               ; preds = %29
  %34 = call ptr @__errno_location() #10
  %35 = load i32, ptr %34, align 4, !tbaa !12
  %36 = icmp eq i32 %35, 2
  br i1 %36, label %37, label %38

37:                                               ; preds = %33
  store i32 0, ptr %4, align 4
  store i32 1, ptr %10, align 4
  br label %49

38:                                               ; preds = %33
  %39 = load ptr, ptr %5, align 8, !tbaa !69
  %40 = call ptr @oid_to_hex(ptr noundef %39)
  %41 = call i32 (ptr, ...) @error_errno(ptr noundef @.str.2, ptr noundef %40)
  %42 = call i32 @const_error()
  store i32 %42, ptr %4, align 4
  store i32 1, ptr %10, align 4
  br label %49

43:                                               ; preds = %29
  %44 = load ptr, ptr %5, align 8, !tbaa !69
  %45 = getelementptr inbounds nuw %struct.stat, ptr %8, i32 0, i32 12
  %46 = getelementptr inbounds nuw %struct.timespec, ptr %45, i32 0, i32 0
  %47 = load i64, ptr %46, align 8, !tbaa !74
  %48 = load ptr, ptr %7, align 8, !tbaa !11
  call void @add_recent_object(ptr noundef %44, ptr noundef null, i64 noundef 0, i64 noundef %47, ptr noundef %48)
  store i32 0, ptr %4, align 4
  store i32 1, ptr %10, align 4
  br label %49

49:                                               ; preds = %43, %38, %37, %28, %15
  call void @llvm.lifetime.end.p0(i64 8, ptr %9) #9
  call void @llvm.lifetime.end.p0(i64 144, ptr %8) #9
  %50 = load i32, ptr %4, align 4
  ret i32 %50
}