; Function Attrs: nounwind uwtable
define internal range(i32 -1, 1) i32 @add_recent_loose(ptr noundef %0, ptr noundef readonly captures(none) %1, ptr noundef %2) #0 {
  %4 = alloca %struct.stat, align 8
  call void @llvm.lifetime.start.p0(i64 144, ptr nonnull %4) #11
  %5 = getelementptr inbounds nuw i8, ptr %2, i64 24
  %6 = load i32, ptr %5, align 8, !tbaa !18
  %.not.i = icmp eq i32 %6, 0
  br i1 %.not.i, label %want_recent_object.exit, label %7

7:                                                ; preds = %3
  %8 = load ptr, ptr %2, align 8, !tbaa !4
  %9 = getelementptr inbounds nuw i8, ptr %8, i64 24
  %10 = load ptr, ptr %9, align 8, !tbaa !20
  %11 = tail call i32 @has_object_kept_pack(ptr noundef %10, ptr noundef %0, i32 noundef 2) #11
  %.not3.i = icmp eq i32 %11, 0
  br i1 %.not3.i, label %want_recent_object.exit, label %want_recent_object.exit.thread

want_recent_object.exit:                          ; preds = %7, %3
  %12 = load ptr, ptr @the_repository, align 8, !tbaa !65
  %13 = tail call ptr @lookup_object(ptr noundef %12, ptr noundef %0) #11
  %.not10 = icmp eq ptr %13, null
  br i1 %.not10, label %17, label %14

14:                                               ; preds = %want_recent_object.exit
  %15 = load i32, ptr %13, align 4
  %16 = and i32 %15, 16
  %.not11 = icmp eq i32 %16, 0
  br i1 %.not11, label %17, label %want_recent_object.exit.thread

17:                                               ; preds = %14, %want_recent_object.exit
  %18 = call i32 @stat64(ptr noundef %1, ptr noundef nonnull %4) #11
  %19 = icmp slt i32 %18, 0
  br i1 %19, label %20, label %27

20:                                               ; preds = %17
  %21 = tail call ptr @__errno_location() #12
  %22 = load i32, ptr %21, align 4, !tbaa !66
  %23 = icmp eq i32 %22, 2
  br i1 %23, label %want_recent_object.exit.thread, label %24

24:                                               ; preds = %20
  %25 = tail call ptr @oid_to_hex(ptr noundef %0) #11
  %26 = tail call i32 (ptr, ...) @error_errno(ptr noundef nonnull @.str.2, ptr noundef %25) #11
  br label %want_recent_object.exit.thread

27:                                               ; preds = %17
  %28 = getelementptr inbounds nuw i8, ptr %4, i64 88
  %29 = load i64, ptr %28, align 8, !tbaa !67
  tail call fastcc void @add_recent_object(ptr noundef %0, ptr noundef null, i64 noundef 0, i64 noundef %29, ptr noundef nonnull %2)
  br label %want_recent_object.exit.thread

want_recent_object.exit.thread:                   ; preds = %7, %20, %14, %27, %24
  %.0 = phi i32 [ -1, %24 ], [ 0, %27 ], [ 0, %14 ], [ 0, %20 ], [ 0, %7 ]
  call void @llvm.lifetime.end.p0(i64 144, ptr nonnull %4) #11
  ret i32 %.0
}